(lp1
S'0'
aS'1'
aS'2'
aS'3'
aS'4'
aS'5'
aS'6'
aS'7'
aS'8'
aS'9'
aS'A'
aS'B'
aS'C'
aS'D'
aS'E'
aS'F'
aS'G'
aS'H'
aS'I'
aS'J'
aS'K'
aS'L'
aS'M'
aS'N'
aS'O'
aS'P'
aS'Q'
aS'R'
aS'S'
aS'T'
aS'U'
aS'V'
aS'W'
aS'X'
aS'Y'
aS'Z'
aS'a'
aS'b'
aS'c'
aS'd'
aS'e'
aS'f'
aS'g'
aS'h'
aS'i'
aS'j'
aS'k'
aS'l'
aS'm'
aS'n'
aS'o'
aS'p'
aS'q'
aS'r'
aS's'
aS't'
aS'u'
aS'v'
aS'w'
aS'x'
aS'y'
aS'z'
a.